(dp0
I8
(lp1
I39
aI12
aI51
aF147.98999999999995
aF-241.78000000000006
aF-93.78000000000002
asI9
(lp2
I35
aI15
aI50
aF152.56999999999996
aF-244.44000000000005
aF-91.92999999999999
asI6
(lp3
I36
aI11
aI47
aF183.68999999999997
aF-253.5600000000001
aF-69.9
asI7
(lp4
I40
aI13
aI53
aF174.41
aF-252.97
aF-78.49000000000001
as.